(dp0
Vu196
p1
I0
sVi242
p2
I1
sVu186
p3
I2
sVi302
p4
I3
sVu22
p5
I4
sVi377
p6
I5
sVu244
p7
I6
sVi51
p8
I7
sVu166
p9
I8
sVi346
p10
I9
sVu298
p11
I10
sVi474
p12
I11
sVu115
p13
I12
sVi265
p14
I13
sVu253
p15
I14
sVi465
p16
I15
sVu305
p17
I16
sVi451
p18
I17
sVu6
p19
I18
sVi86
p20
I19
sVu62
p21
I20
sVi257
p22
I21
sVu286
p23
I22
sVi1014
p24
I23
sVu200
p25
I24
sVi222
p26
I25
sVu210
p27
I26
sVi40
p28
I27
sVu224
p29
I28
sVi29
p30
I29
sVu303
p31
I30
sVi785
p32
I31
sVu122
p33
I32
sVi387
p34
I33
sVu194
p35
I34
sVi274
p36
I35
sVu291
p37
I36
sVi1042
p38
I37
sVu234
p39
I38
sVi1184
p40
I39
sVu119
p41
I40
sVi392
p42
I41
sVu167
p43
I42
sVi486
p44
I43
sVu299
p45
I44
sVi144
p46
I45
sVi118
p47
I46
sVu308
p48
I47
sVi1
p49
I48
sVu95
p50
I49
sVi546
p51
I50
sVu38
p52
I51
sVi95
p53
I52
sVu102
p54
I53
sVi768
p55
I54
sVu63
p56
I55
sVi277
p57
I56
sVu160
p58
I57
sVi234
p59
I58
sVu50
p60
I59
sVi246
p61
I60
sVu301
p62
I61
sVi98
p63
I62
sVu225
p64
I63
sVi193
p65
I64
sVu290
p66
I65
sVi88
p67
I66
sVu97
p68
I67
sVi194
p69
I68
sVu157
p70
I69
sVu181
p71
I70
sVi1081
p72
I71
sVu278
p73
I72
sVi603
p74
I73
sVu276
p75
I74
sVi796
p76
I75
sVu7
p77
I76
sVi32
p78
I77
sVu10
p79
I78
sVi16
p80
I79
sVu284
p81
I80
sVi304
p82
I81
sVu201
p83
I82
sVi979
p84
I83
sVi564
p85
I84
sVu287
p86
I85
sVi327
p87
I86
sVu246
p88
I87
sVi201
p89
I88
sVu242
p90
I89
sVi1137
p91
I90
sVu249
p92
I91
sVi241
p93
I92
sVu99
p94
I93
sVi4
p95
I94
sVu178
p96
I95
sVi332
p97
I96
sVu251
p98
I97
sVi100
p99
I98
sVu81
p100
I99
sVi432
p101
I100
sVu260
p102
I101
sVi322
p103
I102
sVu25
p104
I103
sVi181
p105
I104
sVu59
p106
I105
sVi196
p107
I106
sVu72
p108
I107
sVi679
p109
I108
sVu87
p110
I109
sVi384
p111
I110
sVi143
p112
I111
sVu42
p113
I112
sVi423
p114
I113
sVu292
p115
I114
sVi515
p116
I115
sVi20
p117
I116
sVu20
p118
I117
sVi288
p119
I118
sVi219
p120
I119
sVu13
p121
I120
sVi526
p122
I121
sVi919
p123
I122
sVu138
p124
I123
sVi26
p125
I124
sVi232
p126
I125
sVu60
p127
I126
sVi427
p128
I127
sVu57
p129
I128
sVu223
p130
I129
sVu189
p131
I130
sVi512
p132
I131
sVu243
p133
I132
sVi15
p134
I133
sVu92
p135
I134
sVi1049
p136
I135
sVi416
p137
I136
sVi165
p138
I137
sVu241
p139
I138
sVi690
p140
I139
sVi248
p141
I140
sVu254
p142
I141
sVi1444
p143
I142
sVu293
p144
I143
sVi5
p145
I144
sVu127
p146
I145
sVi229
p147
I146
sVi237
p148
I147
sVi480
p149
I148
sVi54
p150
I149
sVu222
p151
I150
sVi366
p152
I151
sVu267
p153
I152
sVi518
p154
I153
sVi403
p155
I154
sVu11
p156
I155
sVi111
p157
I156
sVi625
p158
I157
sVu8
p159
I158
sVi338
p160
I159
sVu162
p161
I160
sVi25
p162
I161
sVi1016
p163
I162
sVu279
p164
I163
sVi154
p165
I164
sVu145
p166
I165
sVi275
p167
I166
sVi1153
p168
I167
sVi498
p169
I168
sVi382
p170
I169
sVu28
p171
I170
sVi209
p172
I171
sVu135
p173
I172
sVi23
p174
I173
sVu32
p175
I174
sVi294
p176
I175
sVu90
p177
I176
sVi208
p178
I177
sVi685
p179
I178
sVu216
p180
I179
sVi328
p181
I180
sVu250
p182
I181
sVi496
p183
I182
sVu271
p184
I183
sVi132
p185
I184
sVi174
p186
I185
sVu265
p187
I186
sVu198
p188
I187
sVi96
p189
I188
sVu168
p190
I189
sVi151
p191
I190
sVu110
p192
I191
sVi307
p193
I192
sVu58
p194
I193
sVi648
p195
I194
sVi21
p196
I195
sVi832
p197
I196
sVu237
p198
I197
sVi514
p199
I198
sVu94
p200
I199
sVi789
p201
I200
sVu128
p202
I201
sVi485
p203
I202
sVi317
p204
I203
sVu44
p205
I204
sVi195
p206
I205
sVu264
p207
I206
sVi200
p208
I207
sVi385
p209
I208
sVi750
p210
I209
sVi264
p211
I210
sVu41
p212
I211
sVi245
p213
I212
sVu82
p214
I213
sVi135
p215
I214
sVu262
p216
I215
sVi1147
p217
I216
sVi471
p218
I217
sVi658
p219
I218
sVi140
p220
I219
sVi379
p221
I220
sVi815
p222
I221
sVi479
p223
I222
sVu174
p224
I223
sVi368
p225
I224
sVi1211
p226
I225
sVi1134
p227
I226
sVi836
p228
I227
sVi272
p229
I228
sVi756
p230
I229
sVi787
p231
I230
sVu43
p232
I231
sVi14
p233
I232
sVi955
p234
I233
sVi419
p235
I234
sVu84
p236
I235
sVi405
p237
I236
sVu269
p238
I237
sVi504
p239
I238
sVi466
p240
I239
sVi268
p241
I240
sVu259
p242
I241
sVi117
p243
I242
sVu85
p244
I243
sVu213
p245
I244
sVi273
p246
I245
sVu121
p247
I246
sVu49
p248
I247
sVi559
p249
I248
sVi794
p250
I249
sVu155
p251
I250
sVi323
p252
I251
sVu68
p253
I252
sVu172
p254
I253
sVi177
p255
I254
sVu19
p256
I255
sVu268
p257
I256
sVi231
p258
I257
sVu5
p259
I258
sVi2
p260
I259
sVi137
p261
I260
sVi1336
p262
I261
sVu80
p263
I262
sVi164
p264
I263
sVi281
p265
I264
sVi1240
p266
I265
sVu66
p267
I266
sVi298
p268
I267
sVu18
p269
I268
sVi443
p270
I269
sVi1035
p271
I270
sVi79
p272
I271
sVu26
p273
I272
sVi258
p274
I273
sVi455
p275
I274
sVi755
p276
I275
sVi673
p277
I276
sVi172
p278
I277
sVi1217
p279
I278
sVu130
p280
I279
sVi719
p281
I280
sVi1267
p282
I281
sVi930
p283
I282
sVi216
p284
I283
sVi1079
p285
I284
sVu256
p286
I285
sVi452
p287
I286
sVu1
p288
I287
sVi61
p289
I288
sVi48
p290
I289
sVu56
p291
I290
sVi360
p292
I291
sVu15
p293
I292
sVi77
p294
I293
sVu207
p295
I294
sVi476
p296
I295
sVu232
p297
I296
sVi483
p298
I297
sVi748
p299
I298
sVi220
p300
I299
sVi255
p301
I300
sVu52
p302
I301
sVi280
p303
I302
sVu161
p304
I303
sVi202
p305
I304
sVu148
p306
I305
sVi408
p307
I306
sVu125
p308
I307
sVi235
p309
I308
sVi228
p310
I309
sVi1098
p311
I310
sVu83
p312
I311
sVi347
p313
I312
sVu272
p314
I313
sVi178
p315
I314
sVi478
p316
I315
sVi688
p317
I316
sVu151
p318
I317
sVi10
p319
I318
sVi127
p320
I319
sVu54
p321
I320
sVi106
p322
I321
sVi69
p323
I322
sVu16
p324
I323
sVi944
p325
I324
sVi790
p326
I325
sVi1091
p327
I326
sVi214
p328
I327
sVi1028
p329
I328
sVu91
p330
I329
sVi554
p331
I330
sVu294
p332
I331
sVi109
p333
I332
sVi171
p334
I333
sVi318
p335
I334
sVu229
p336
I335
sVi568
p337
I336
sVi842
p338
I337
sVi65
p339
I338
sVi591
p340
I339
sVi401
p341
I340
sVu36
p342
I341
sVi339
p343
I342
sVu70
p344
I343
sVi746
p345
I344
sVi68
p346
I345
sVi7
p347
I346
sVu14
p348
I347
sVi1018
p349
I348
sVu295
p350
I349
sVi218
p351
I350
sVu233
p352
I351
sVi623
p353
I352
sVu214
p354
I353
sVi334
p355
I354
sVu192
p356
I355
sVu100
p357
I356
sVi344
p358
I357
sVi145
p359
I358
sVi56
p360
I359
sVu307
p361
I360
sVi89
p362
I361
sVi141
p363
I362
sVi576
p364
I363
sVu297
p365
I364
sVi133
p366
I365
sVi153
p367
I366
sVi813
p368
I367
sVi872
p369
I368
sVi146
p370
I369
sVi507
p371
I370
sVi367
p372
I371
sVi468
p373
I372
sVu193
p374
I373
sVu113
p375
I374
sVi595
p376
I375
sVi11
p377
I376
sVu275
p378
I377
sVi520
p379
I378
sVu219
p380
I379
sVi82
p381
I380
sVu218
p382
I381
sVu123
p383
I382
sVu158
p384
I383
sVu302
p385
I384
sVi501
p386
I385
sVi3
p387
I386
sVi695
p388
I387
sVi198
p389
I388
sVi189
p390
I389
sVu23
p391
I390
sVi767
p392
I391
sVu296
p393
I392
sVi705
p394
I393
sVu33
p395
I394
sVi64
p396
I395
sVu154
p397
I396
sVi357
p398
I397
sVu77
p399
I398
sVi484
p400
I399
sVi508
p401
I400
sVi303
p402
I401
sVi215
p403
I402
sVu270
p404
I403
sVu187
p405
I404
sVu170
p406
I405
sVi749
p407
I406
sVu101
p408
I407
sVi829
p409
I408
sVu184
p410
I409
sVi204
p411
I410
sVi1295
p412
I411
sVi33
p413
I412
sVi160
p414
I413
sVi321
p415
I414
sVi343
p416
I415
sVi227
p417
I416
sVi191
p418
I417
sVu112
p419
I418
sVi903
p420
I419
sVi183
p421
I420
sVi724
p422
I421
sVi430
p423
I422
sVi1197
p424
I423
sVi134
p425
I424
sVu133
p426
I425
sVi751
p427
I426
sVu215
p428
I427
sVi212
p429
I428
sVu69
p430
I429
sVi256
p431
I430
sVi662
p432
I431
sVu104
p433
I432
sVi984
p434
I433
sVi1067
p435
I434
sVi410
p436
I435
sVu240
p437
I436
sVi879
p438
I437
sVi271
p439
I438
sVi1086
p440
I439
sVi649
p441
I440
sVu144
p442
I441
sVu191
p443
I442
sVi951
p444
I443
sVi197
p445
I444
sVu61
p446
I445
sVi678
p447
I446
sVi199
p448
I447
sVi709
p449
I448
sVu142
p450
I449
sVi169
p451
I450
sVi597
p452
I451
sVi1393
p453
I452
sVu177
p454
I453
sVi333
p455
I454
sVi1115
p456
I455
sVi577
p457
I456
sVi378
p458
I457
sVi425
p459
I458
sVi959
p460
I459
sVi1224
p461
I460
sVi1017
p462
I461
sVi175
p463
I462
sVu203
p464
I463
sVi286
p465
I464
sVu21
p466
I465
sVi558
p467
I466
sVu197
p468
I467
sVi66
p469
I468
sVi206
p470
I469
sVi402
p471
I470
sVi640
p472
I471
sVi522
p473
I472
sVi62
p474
I473
sVi12
p475
I474
sVi291
p476
I475
sVu134
p477
I476
sVu180
p478
I477
sVi462
p479
I478
sVi612
p480
I479
sVi758
p481
I480
sVi845
p482
I481
sVi163
p483
I482
sVi1451
p484
I483
sVi250
p485
I484
sVi823
p486
I485
sVi186
p487
I486
sVi731
p488
I487
sVu236
p489
I488
sVi71
p490
I489
sVi781
p491
I490
sVu263
p492
I491
sVi176
p493
I492
sVi1181
p494
I493
sVi78
p495
I494
sVi436
p496
I495
sVu109
p497
I496
sVi631
p498
I497
sVi716
p499
I498
sVi188
p500
I499
sVi699
p501
I500
sVi604
p502
I501
sVu64
p503
I502
sVi97
p504
I503
sVi173
p505
I504
sVi460
p506
I505
sVi715
p507
I506
sVi17
p508
I507
sVi315
p509
I508
sVu114
p510
I509
sVi505
p511
I510
sVu239
p512
I511
sVi279
p513
I512
sVi80
p514
I513
sVi238
p515
I514
sVi60
p516
I515
sVi325
p517
I516
sVi407
p518
I517
sVi531
p519
I518
sVi587
p520
I519
sVi892
p521
I520
sVu117
p522
I521
sVi1047
p523
I522
sVu65
p524
I523
sVi47
p525
I524
sVi217
p526
I525
sVi259
p527
I526
sVi596
p528
I527
sVu137
p529
I528
sVi960
p530
I529
sVu257
p531
I530
sVu111
p532
I531
sVi211
p533
I532
sVi938
p534
I533
sVi1060
p535
I534
sVi404
p536
I535
sVi305
p537
I536
sVi210
p538
I537
sVi278
p539
I538
sVi770
p540
I539
sVu285
p541
I540
sVi252
p542
I541
sVu96
p543
I542
sVi156
p544
I543
sVi1110
p545
I544
sVu116
p546
I545
sVi350
p547
I546
sVu73
p548
I547
sVi431
p549
I548
sVu221
p550
I549
sVi475
p551
I550
sVi182
p552
I551
sVi50
p553
I552
sVi365
p554
I553
sVi187
p555
I554
sVi289
p556
I555
sVu235
p557
I556
sVi185
p558
I557
sVi712
p559
I558
sVi94
p560
I559
sVi742
p561
I560
sVi762
p562
I561
sVi732
p563
I562
sVi168
p564
I563
sVi550
p565
I564
sVi849
p566
I565
sVu164
p567
I566
sVi406
p568
I567
sVi150
p569
I568
sVi869
p570
I569
sVi184
p571
I570
sVu281
p572
I571
sVi371
p573
I572
sVi720
p574
I573
sVu182
p575
I574
sVu129
p576
I575
sVi873
p577
I576
sVi381
p578
I577
sVu45
p579
I578
sVi922
p580
I579
sVi57
p581
I580
sVi306
p582
I581
sVi370
p583
I582
sVi249
p584
I583
sVi721
p585
I584
sVi611
p586
I585
sVi142
p587
I586
sVi943
p588
I587
sVu131
p589
I588
sVi126
p590
I589
sVi824
p591
I590
sVi8
p592
I591
sVi58
p593
I592
sVu230
p594
I593
sVi680
p595
I594
sVi741
p596
I595
sVi1061
p597
I596
sVi448
p598
I597
sVi900
p599
I598
sVi941
p600
I599
sVu126
p601
I600
sVi905
p602
I601
sVu231
p603
I602
sVu280
p604
I603
sVu288
p605
I604
sVi1497
p606
I605
sVi55
p607
I606
sVi744
p608
I607
sVi642
p609
I608
sVi1015
p610
I609
sVi121
p611
I610
sVu152
p612
I611
sVi301
p613
I612
sVu217
p614
I613
sVu79
p615
I614
sVi81
p616
I615
sVu75
p617
I616
sVi284
p618
I617
sVi740
p619
I618
sVi22
p620
I619
sVi864
p621
I620
sVi1099
p622
I621
sVu245
p623
I622
sVi961
p624
I623
sVi812
p625
I624
sVi240
p626
I625
sVi376
p627
I626
sVi931
p628
I627
sVi717
p629
I628
sVi399
p630
I629
sVi1039
p631
I630
sVu282
p632
I631
sVu78
p633
I632
sVu118
p634
I633
sVu283
p635
I634
sVi1114
p636
I635
sVu171
p637
I636
sVi292
p638
I637
sVu107
p639
I638
sVi561
p640
I639
sVi901
p641
I640
sVi70
p642
I641
sVu226
p643
I642
sVi417
p644
I643
sVu306
p645
I644
sVi809
p646
I645
sVu173
p647
I646
sVu185
p648
I647
sVi540
p649
I648
sVu150
p650
I649
sVi293
p651
I650
sVi497
p652
I651
sVi1462
p653
I652
sVi1246
p654
I653
sVi655
p655
I654
sVi13
p656
I655
sVi588
p657
I656
sVi409
p658
I657
sVi739
p659
I658
sVi661
p660
I659
sVi665
p661
I660
sVu274
p662
I661
sVu188
p663
I662
sVi692
p664
I663
sVi439
p665
I664
sVi632
p666
I665
sVi1198
p667
I666
sVu48
p668
I667
sVi609
p669
I668
sVi225
p670
I669
sVi128
p671
I670
sVu311
p672
I671
sVi866
p673
I672
sVi295
p674
I673
sVu165
p675
I674
sVi49
p676
I675
sVi626
p677
I676
sVi707
p678
I677
sVu208
p679
I678
sVi586
p680
I679
sVu2
p681
I680
sVi593
p682
I681
sVu205
p683
I682
sVi147
p684
I683
sVi1220
p685
I684
sVi492
p686
I685
sVi620
p687
I686
sVi161
p688
I687
sVi1070
p689
I688
sVi449
p690
I689
sVu248
p691
I690
sVi948
p692
I691
sVi509
p693
I692
sVi870
p694
I693
sVi39
p695
I694
sVi1100
p696
I695
sVu93
p697
I696
sVi820
p698
I697
sVu159
p699
I698
sVi660
p700
I699
sVu146
p701
I700
sVi1022
p702
I701
sVi120
p703
I702
sVi780
p704
I703
sVi44
p705
I704
sVi686
p706
I705
sVi28
p707
I706
sVu29
p708
I707
sVi729
p709
I708
sVu156
p710
I709
sVi52
p711
I710
sVu37
p712
I711
sVu141
p713
I712
sVi230
p714
I713
sVi506
p715
I714
sVi566
p716
I715
sVi774
p717
I716
sVi1003
p718
I717
sVi433
p719
I718
sVi99
p720
I719
sVi1288
p721
I720
sVi190
p722
I721
sVi1010
p723
I722
sVi877
p724
I723
sVi487
p725
I724
sVu195
p726
I725
sVi1052
p727
I726
sVi287
p728
I727
sVi659
p729
I728
sVu108
p730
I729
sVi927
p731
I730
sVi696
p732
I731
sVi269
p733
I732
sVi179
p734
I733
sVi440
p735
I734
sVi806
p736
I735
sVi572
p737
I736
sVi654
p738
I737
sVu47
p739
I738
sVi324
p740
I739
sVi736
p741
I740
sVi92
p742
I741
sVi461
p743
I742
sVi129
p744
I743
sVi9
p745
I744
sVi152
p746
I745
sVi233
p747
I746
sVi589
p748
I747
sVi203
p749
I748
sVu255
p750
I749
sVi1034
p751
I750
sVi923
p752
I751
sVi463
p753
I752
sVi122
p754
I753
sVi310
p755
I754
sVi285
p756
I755
sVi447
p757
I756
sVu89
p758
I757
sVi412
p759
I758
sVi1428
p760
I759
sVu140
p761
I760
sVu190
p762
I761
sVi977
p763
I762
sVi1065
p764
I763
sVi421
p765
I764
sVi937
p766
I765
sVi583
p767
I766
sVi110
p768
I767
sVi251
p769
I768
sVi831
p770
I769
sVi543
p771
I770
sVi926
p772
I771
sVi155
p773
I772
sVi53
p774
I773
sVu24
p775
I774
sVi393
p776
I775
sVi91
p777
I776
sVi477
p778
I777
sVi472
p779
I778
sVi761
p780
I779
sVi1286
p781
I780
sVi93
p782
I781
sVi644
p783
I782
sVu17
p784
I783
sVu313
p785
I784
sVi982
p786
I785
sVi491
p787
I786
sVi511
p788
I787
sVi397
p789
I788
sVi162
p790
I789
sVi513
p791
I790
sVi375
p792
I791
sVi38
p793
I792
sVi418
p794
I793
sVi858
p795
I794
sVi131
p796
I795
sVi87
p797
I796
sVi725
p798
I797
sVi72
p799
I798
sVi663
p800
I799
sVi1133
p801
I800
sVi125
p802
I801
sVi1248
p803
I802
sVi354
p804
I803
sVi105
p805
I804
sVi73
p806
I805
sVi239
p807
I806
sVi860
p808
I807
sVi1046
p809
I808
sVi1178
p810
I809
sVi523
p811
I810
sVu53
p812
I811
sVu124
p813
I812
sVi634
p814
I813
sVi1245
p815
I814
sVi974
p816
I815
sVi619
p817
I816
sVi107
p818
I817
sVi213
p819
I818
sVu149
p820
I819
sVi319
p821
I820
sVi963
p822
I821
sVu176
p823
I822
sVi875
p824
I823
sVu106
p825
I824
sVi180
p826
I825
sVi1033
p827
I826
sVi380
p828
I827
sVi59
p829
I828
sVi1078
p830
I829
sVi585
p831
I830
sVi148
p832
I831
sVu312
p833
I832
sVi683
p834
I833
sVi454
p835
I834
sVu175
p836
I835
sVi737
p837
I836
sVi524
p838
I837
sVu153
p839
I838
sVi995
p840
I839
sVi616
p841
I840
sVi945
p842
I841
sVi299
p843
I842
sVi792
p844
I843
sVi708
p845
I844
sVi950
p846
I845
sVi27
p847
I846
sVi747
p848
I847
sVi85
p849
I848
sVi516
p850
I849
sVi1063
p851
I850
sVu220
p852
I851
sVu143
p853
I852
sVi682
p854
I853
sVu199
p855
I854
sVi221
p856
I855
sVi1150
p857
I856
sVi847
p858
I857
sVi138
p859
I858
sVi517
p860
I859
sVu202
p861
I860
sVi283
p862
I861
sVi602
p863
I862
sVu277
p864
I863
sVi573
p865
I864
sVi617
p866
I865
sVi569
p867
I866
sVi1332
p868
I867
sVu206
p869
I868
sVu76
p870
I869
sVi703
p871
I870
sVu314
p872
I871
sVi386
p873
I872
sVi331
p874
I873
sVu136
p875
I874
sVi355
p876
I875
sVu179
p877
I876
sVi949
p878
I877
sVi488
p879
I878
sVi114
p880
I879
sVi24
p881
I880
sVi763
p882
I881
sVi43
p883
I882
sVi953
p884
I883
sVi670
p885
I884
sVi510
p886
I885
sVu4
p887
I886
sVu304
p888
I887
sVi372
p889
I888
sVu3
p890
I889
sVi335
p891
I890
sVi779
p892
I891
sVi435
p893
I892
sVi223
p894
I893
sVi1334
p895
I894
sVi835
p896
I895
sVi1327
p897
I896
sVi263
p898
I897
sVi450
p899
I898
sVi651
p900
I899
sVi316
p901
I900
sVi929
p902
I901
sVi580
p903
I902
sVi1041
p904
I903
sVi424
p905
I904
sVi429
p906
I905
sVi868
p907
I906
sVi1161
p908
I907
sVi166
p909
I908
sVi1162
p910
I909
sVi1019
p911
I910
sVi908
p912
I911
sVi1160
p913
I912
sVi676
p914
I913
sVi1012
p915
I914
sVi1209
p916
I915
sVi693
p917
I916
sVu227
p918
I917
sVi282
p919
I918
sVi253
p920
I919
sVi428
p921
I920
sVi1350
p922
I921
sVi363
p923
I922
sVi300
p924
I923
sVi1346
p925
I924
sVi1119
p926
I925
sVi674
p927
I926
sVu252
p928
I927
sVi411
p929
I928
sVi527
p930
I929
sVi1397
p931
I930
sVi807
p932
I931
sVi657
p933
I932
sVi1142
p934
I933
sVi113
p935
I934
sVi426
p936
I935
sVu212
p937
I936
sVi1109
p938
I937
sVu310
p939
I938
sVi116
p940
I939
sVi898
p941
I940
sVi723
p942
I941
sVu35
p943
I942
sVi243
p944
I943
sVi582
p945
I944
sVi778
p946
I945
sVi308
p947
I946
sVi1007
p948
I947
sVi641
p949
I948
sVi1165
p950
I949
sVi764
p951
I950
sVi1011
p952
I951
sVi1101
p953
I952
sVi396
p954
I953
sVi1260
p955
I954
sVu147
p956
I955
sVi904
p957
I956
sVu105
p958
I957
sVu34
p959
I958
sVi312
p960
I959
sVi1048
p961
I960
sVu71
p962
I961
sVi627
p963
I962
sVi571
p964
I963
sVi552
p965
I964
sVi1278
p966
I965
sVi499
p967
I966
sVi1186
p968
I967
sVu51
p969
I968
sVi1057
p970
I969
sVu204
p971
I970
sVi207
p972
I971
sVu315
p973
I972
sVi309
p974
I973
sVi671
p975
I974
sVi83
p976
I975
sVi482
p977
I976
sVi276
p978
I977
sVi1094
p979
I978
sVi647
p980
I979
sVi578
p981
I980
sVi1021
p982
I981
sVu31
p983
I982
sVi886
p984
I983
sVu316
p985
I984
sVu103
p986
I985
sVi1151
p987
I986
sVi855
p988
I987
sVi942
p989
I988
sVu318
p990
I989
sVi826
p991
I990
sVi1044
p992
I991
sVi254
p993
I992
sVi290
p994
I993
sVi848
p995
I994
sVi542
p996
I995
sVi581
p997
I996
sVi1229
p998
I997
sVi718
p999
I998
sVi337
p1000
I999
sVi1107
p1001
I1000
sVu30
p1002
I1001
sVi539
p1003
I1002
sVi821
p1004
I1003
sVi364
p1005
I1004
sVi553
p1006
I1005
sVi313
p1007
I1006
sVi1218
p1008
I1007
sVi115
p1009
I1008
sVi1129
p1010
I1009
sVi493
p1011
I1010
sVi36
p1012
I1011
sVi205
p1013
I1012
sVu120
p1014
I1013
sVi102
p1015
I1014
sVi1249
p1016
I1015
sVi773
p1017
I1016
sVi494
p1018
I1017
sVi192
p1019
I1018
sVi687
p1020
I1019
sVi772
p1021
I1020
sVi921
p1022
I1021
sVi42
p1023
I1022
sVi469
p1024
I1023
sVi874
p1025
I1024
sVi1216
p1026
I1025
sVu46
p1027
I1026
sVi1139
p1028
I1027
sVi547
p1029
I1028
sVi157
p1030
I1029
sVi1208
p1031
I1030
sVi1157
p1032
I1031
sVi808
p1033
I1032
sVu289
p1034
I1033
sVu209
p1035
I1034
sVi906
p1036
I1035
sVi535
p1037
I1036
sVi470
p1038
I1037
sVi714
p1039
I1038
sVi939
p1040
I1039
sVi738
p1041
I1040
sVi525
p1042
I1041
sVu261
p1043
I1042
sVi340
p1044
I1043
sVi1037
p1045
I1044
sVi530
p1046
I1045
sVu88
p1047
I1046
sVu9
p1048
I1047
sVi528
p1049
I1048
sVi754
p1050
I1049
sVi1436
p1051
I1050
sVi771
p1052
I1051
sVi226
p1053
I1052
sVi1383
p1054
I1053
sVu247
p1055
I1054
sVi745
p1056
I1055
sVi1316
p1057
I1056
sVi846
p1058
I1057
sVi605
p1059
I1058
sVi575
p1060
I1059
sVi1284
p1061
I1060
sVi1298
p1062
I1061
sVu321
p1063
I1062
sVi529
p1064
I1063
sVi743
p1065
I1064
sVi840
p1066
I1065
sVi244
p1067
I1066
sVi760
p1068
I1067
sVi1006
p1069
I1068
sVi1228
p1070
I1069
sVi1095
p1071
I1070
sVi34
p1072
I1071
sVi103
p1073
I1072
sVi441
p1074
I1073
sVi90
p1075
I1074
sVi1005
p1076
I1075
sVi863
p1077
I1076
sVu266
p1078
I1077
sVu74
p1079
I1078
sVi473
p1080
I1079
sVu238
p1081
I1080
sVi1281
p1082
I1081
sVi356
p1083
I1082
sVi630
p1084
I1083
sVu319
p1085
I1084
sVi793
p1086
I1085
sVi766
p1087
I1086
sVi1206
p1088
I1087
sVi1342
p1089
I1088
sVi980
p1090
I1089
sVi1263
p1091
I1090
sVi1376
p1092
I1091
sVi1182
p1093
I1092
sVi457
p1094
I1093
sVi710
p1095
I1094
sVi615
p1096
I1095
sVi101
p1097
I1096
sVi697
p1098
I1097
sVi1199
p1099
I1098
sVu323
p1100
I1099
sVu67
p1101
I1100
sVi395
p1102
I1101
sVi983
p1103
I1102
sVu211
p1104
I1103
sVi684
p1105
I1104
sVu98
p1106
I1105
sVi971
p1107
I1106
sVi1116
p1108
I1107
sVu12
p1109
I1108
sVi267
p1110
I1109
sVu40
p1111
I1110
sVu258
p1112
I1111
sVi556
p1113
I1112
sVi853
p1114
I1113
sVi311
p1115
I1114
sVi1073
p1116
I1115
sVi975
p1117
I1116
sVi361
p1118
I1117
sVi643
p1119
I1118
sVi704
p1120
I1119
sVi997
p1121
I1120
sVi260
p1122
I1121
sVi990
p1123
I1122
sVi969
p1124
I1123
sVi167
p1125
I1124
sVi650
p1126
I1125
sVu228
p1127
I1126
sVi320
p1128
I1127
sVi63
p1129
I1128
sVi965
p1130
I1129
sVi652
p1131
I1130
sVi1059
p1132
I1131
sVi882
p1133
I1132
sVi1164
p1134
I1133
sVi1207
p1135
I1134
sVi786
p1136
I1135
sVi614
p1137
I1136
sVu325
p1138
I1137
sVi810
p1139
I1138
sVi1222
p1140
I1139
sVu320
p1141
I1140
sVi139
p1142
I1141
sVi769
p1143
I1142
sVi765
p1144
I1143
sVi67
p1145
I1144
sVi624
p1146
I1145
sVu326
p1147
I1146
sVi1001
p1148
I1147
sVi797
p1149
I1148
sVi883
p1150
I1149
sVi752
p1151
I1150
sVi1315
p1152
I1151
sVi560
p1153
I1152
sVi345
p1154
I1153
sVi1194
p1155
I1154
sVi464
p1156
I1155
sVi1348
p1157
I1156
sVi932
p1158
I1157
sVi1179
p1159
I1158
sVi536
p1160
I1159
sVi369
p1161
I1160
sVi1250
p1162
I1161
sVi880
p1163
I1162
sVi629
p1164
I1163
sVi775
p1165
I1164
sVi1289
p1166
I1165
sVi544
p1167
I1166
sVi170
p1168
I1167
sVi1518
p1169
I1168
sVi413
p1170
I1169
sVi618
p1171
I1170
sVi326
p1172
I1171
sVi123
p1173
I1172
sVi628
p1174
I1173
sVi262
p1175
I1174
sVi31
p1176
I1175
sVi1180
p1177
I1176
sVi414
p1178
I1177
sVi490
p1179
I1178
sVi839
p1180
I1179
sVi453
p1181
I1180
sVi149
p1182
I1181
sVi1320
p1183
I1182
sVi827
p1184
I1183
sVi124
p1185
I1184
sVi570
p1186
I1185
sVi843
p1187
I1186
sVi844
p1188
I1187
sVi420
p1189
I1188
sVi590
p1190
I1189
sVi1230
p1191
I1190
sVi1324
p1192
I1191
sVi895
p1193
I1192
sVi1149
p1194
I1193
sVi567
p1195
I1194
sVi606
p1196
I1195
sVi816
p1197
I1196
sVu327
p1198
I1197
sVi672
p1199
I1198
sVi584
p1200
I1199
sVi521
p1201
I1200
sVi728
p1202
I1201
sVi689
p1203
I1202
sVi329
p1204
I1203
sVi859
p1205
I1204
sVi456
p1206
I1205
sVu183
p1207
I1206
sVi791
p1208
I1207
sVi159
p1209
I1208
sVi489
p1210
I1209
sVi1266
p1211
I1210
sVi1416
p1212
I1211
sVi988
p1213
I1212
sVi636
p1214
I1213
sVu328
p1215
I1214
sVi1411
p1216
I1215
sVi533
p1217
I1216
sVi1394
p1218
I1217
sVi819
p1219
I1218
sVi495
p1220
I1219
sVi1093
p1221
I1220
sVi1492
p1222
I1221
sVi30
p1223
I1222
sVi314
p1224
I1223
sVi958
p1225
I1224
sVi841
p1226
I1225
sVi838
p1227
I1226
sVi702
p1228
I1227
sVi1020
p1229
I1228
sVi947
p1230
I1229
sVi1000
p1231
I1230
sVi104
p1232
I1231
sVi1322
p1233
I1232
sVi622
p1234
I1233
sVi481
p1235
I1234
sVi532
p1236
I1235
sVi915
p1237
I1236
sVi502
p1238
I1237
sVi1291
p1239
I1238
sVi330
p1240
I1239
sVi802
p1241
I1240
sVi37
p1242
I1241
sVi1025
p1243
I1242
sVi1364
p1244
I1243
sVi266
p1245
I1244
sVi727
p1246
I1245
sVi828
p1247
I1246
sVi548
p1248
I1247
sVi1132
p1249
I1248
sVi993
p1250
I1249
sVi136
p1251
I1250
sVu322
p1252
I1251
sVi996
p1253
I1252
sVi562
p1254
I1253
sVi653
p1255
I1254
sVi74
p1256
I1255
sVi1493
p1257
I1256
sVi45
p1258
I1257
sVu330
p1259
I1258
sVi867
p1260
I1259
sVi876
p1261
I1260
sVi158
p1262
I1261
sVi1183
p1263
I1262
sVi1118
p1264
I1263
sVi500
p1265
I1264
sVi610
p1266
I1265
sVi887
p1267
I1266
sVi1299
p1268
I1267
sVi918
p1269
I1268
sVi41
p1270
I1269
sVi1066
p1271
I1270
sVi336
p1272
I1271
sVi1117
p1273
I1272
sVi1169
p1274
I1273
sVi1262
p1275
I1274
sVu27
p1276
I1275
sVi348
p1277
I1276
sVu331
p1278
I1277
sVi270
p1279
I1278
sVi1053
p1280
I1279
sVi1464
p1281
I1280
sVu332
p1282
I1281
sVi374
p1283
I1282
sVu329
p1284
I1283
sVu86
p1285
I1284
sVi621
p1286
I1285
sVi607
p1287
I1286
sVi1030
p1288
I1287
sVi777
p1289
I1288
sVi700
p1290
I1289
sVi297
p1291
I1290
sVi925
p1292
I1291
sVi928
p1293
I1292
sVi394
p1294
I1293
sVi549
p1295
I1294
sVi999
p1296
I1295
sVu139
p1297
I1296
sVi1471
p1298
I1297
sVi341
p1299
I1298
sVi1009
p1300
I1299
sVi391
p1301
I1300
sVi467
p1302
I1301
sVu300
p1303
I1302
sVi811
p1304
I1303
sVi805
p1305
I1304
sVi519
p1306
I1305
sVi1036
p1307
I1306
sVi84
p1308
I1307
sVu163
p1309
I1308
sVu333
p1310
I1309
sVi894
p1311
I1310
sVi574
p1312
I1311
sVi1113
p1313
I1312
sVi1306
p1314
I1313
sVi638
p1315
I1314
sVi1314
p1316
I1315
sVi1131
p1317
I1316
sVi1069
p1318
I1317
sVi1084
p1319
I1318
sVi1407
p1320
I1319
sVi878
p1321
I1320
sVi1242
p1322
I1321
sVu334
p1323
I1322
sVi359
p1324
I1323
sVi579
p1325
I1324
sVi884
p1326
I1325
sVi691
p1327
I1326
sVi954
p1328
I1327
sVu39
p1329
I1328
sVi261
p1330
I1329
sVi1112
p1331
I1330
sVi1090
p1332
I1331
sVi445
p1333
I1332
sVi108
p1334
I1333
sVi635
p1335
I1334
sVi1135
p1336
I1335
sVi76
p1337
I1336
sVi1082
p1338
I1337
sVi1215
p1339
I1338
sVi1328
p1340
I1339
sVi1013
p1341
I1340
sVi1170
p1342
I1341
sVu324
p1343
I1342
sVi1265
p1344
I1343
sVi735
p1345
I1344
sVi352
p1346
I1345
sVu132
p1347
I1346
sVi833
p1348
I1347
sVi722
p1349
I1348
sVi434
p1350
I1349
sVu336
p1351
I1350
sVu335
p1352
I1351
sVi801
p1353
I1352
sVi224
p1354
I1353
sVu169
p1355
I1354
sVi358
p1356
I1355
sVu338
p1357
I1356
sVi966
p1358
I1357
sVi1351
p1359
I1358
sVi675
p1360
I1359
sVu339
p1361
I1360
sVi991
p1362
I1361
sVu309
p1363
I1362
sVi633
p1364
I1363
sVi1102
p1365
I1364
sVi1424
p1366
I1365
sVi1163
p1367
I1366
sVi1413
p1368
I1367
sVi830
p1369
I1368
sVi924
p1370
I1369
sVi976
p1371
I1370
sVi825
p1372
I1371
sVi389
p1373
I1372
sVi1189
p1374
I1373
sVi978
p1375
I1374
sVi444
p1376
I1375
sVi1484
p1377
I1376
sVi362
p1378
I1377
sVu342
p1379
I1378
sVi1442
p1380
I1379
sVi1419
p1381
I1380
sVi1241
p1382
I1381
sVi613
p1383
I1382
sVi656
p1384
I1383
sVi734
p1385
I1384
sVi946
p1386
I1385
sVi913
p1387
I1386
sVi1172
p1388
I1387
sVi1108
p1389
I1388
sVi1347
p1390
I1389
sVi1074
p1391
I1390
sVi1187
p1392
I1391
sVi856
p1393
I1392
sVi1212
p1394
I1393
sVu340
p1395
I1394
sVi1105
p1396
I1395
sVi6
p1397
I1396
sVu317
p1398
I1397
sVi964
p1399
I1398
sVi1043
p1400
I1399
sVi398
p1401
I1400
sVi694
p1402
I1401
sVi1072
p1403
I1402
sVi1141
p1404
I1403
sVi733
p1405
I1404
sVu341
p1406
I1405
sVi1051
p1407
I1406
sVu343
p1408
I1407
sVi1478
p1409
I1408
sVi19
p1410
I1409
sVi1210
p1411
I1410
sVi962
p1412
I1411
sVi1203
p1413
I1412
sVi563
p1414
I1413
sVi1097
p1415
I1414
sVi1292
p1416
I1415
sVi458
p1417
I1416
sVu344
p1418
I1417
sVi871
p1419
I1418
sVi1062
p1420
I1419
sVi608
p1421
I1420
sVi788
p1422
I1421
sVi1508
p1423
I1422
sVi1283
p1424
I1423
sVi557
p1425
I1424
sVi936
p1426
I1425
sVi1362
p1427
I1426
sVi551
p1428
I1427
sVi1498
p1429
I1428
sVi782
p1430
I1429
sVi1225
p1431
I1430
sVi1050
p1432
I1431
sVu345
p1433
I1432
sVi986
p1434
I1433
sVi1188
p1435
I1434
sVi1272
p1436
I1435
sVi1268
p1437
I1436
sVi415
p1438
I1437
sVi1372
p1439
I1438
sVu346
p1440
I1439
sVi646
p1441
I1440
sVi902
p1442
I1441
sVi555
p1443
I1442
sVi383
p1444
I1443
sVu347
p1445
I1444
sVi1239
p1446
I1445
sVi1277
p1447
I1446
sVi681
p1448
I1447
sVi934
p1449
I1448
sVi972
p1450
I1449
sVi1152
p1451
I1450
sVi645
p1452
I1451
sVi664
p1453
I1452
sVi795
p1454
I1453
sVi940
p1455
I1454
sVi1104
p1456
I1455
sVi783
p1457
I1456
sVi373
p1458
I1457
sVu273
p1459
I1458
sVi713
p1460
I1459
sVi1126
p1461
I1460
sVi342
p1462
I1461
sVi1127
p1463
I1462
sVi1503
p1464
I1463
sVu55
p1465
I1464
sVi818
p1466
I1465
sVi896
p1467
I1466
sVi351
p1468
I1467
sVi1004
p1469
I1468
sVi1008
p1470
I1469
sVi1106
p1471
I1470
sVi850
p1472
I1471
sVu349
p1473
I1472
sVi1226
p1474
I1473
sVu348
p1475
I1474
sVi639
p1476
I1475
sVi422
p1477
I1476
sVi910
p1478
I1477
sVi1500
p1479
I1478
sVi1463
p1480
I1479
sVi1002
p1481
I1480
sVi1495
p1482
I1481
sVi1401
p1483
I1482
sVi119
p1484
I1483
sVi1040
p1485
I1484
sVu354
p1486
I1485
sVi1312
p1487
I1486
sVi537
p1488
I1487
sVi992
p1489
I1488
sVi1384
p1490
I1489
sVi1487
p1491
I1490
sVi1192
p1492
I1491
sVi1136
p1493
I1492
sVi1227
p1494
I1493
sVi865
p1495
I1494
sVi1128
p1496
I1495
sVi1371
p1497
I1496
sVi1032
p1498
I1497
sVi1071
p1499
I1498
sVi814
p1500
I1499
sVu351
p1501
I1500
sVi503
p1502
I1501
sVi1253
p1503
I1502
sVi1318
p1504
I1503
sVi1378
p1505
I1504
sVi753
p1506
I1505
sVu358
p1507
I1506
sVi1124
p1508
I1507
sVu352
p1509
I1508
sVi1520
p1510
I1509
sVu360
p1511
I1510
sVi1270
p1512
I1511
sVi1089
p1513
I1512
sVi1123
p1514
I1513
sVi1190
p1515
I1514
sVi1459
p1516
I1515
sVi1202
p1517
I1516
sVu363
p1518
I1517
sVi637
p1519
I1518
sVi390
p1520
I1519
sVi349
p1521
I1520
sVu355
p1522
I1521
sVi538
p1523
I1522
sVu362
p1524
I1523
sVi601
p1525
I1524
sVu357
p1526
I1525
sVi698
p1527
I1526
sVu356
p1528
I1527
sVi1386
p1529
I1528
sVi1168
p1530
I1529
sVi1023
p1531
I1530
sVi437
p1532
I1531
sVi1276
p1533
I1532
sVu361
p1534
I1533
sVu365
p1535
I1534
sVu350
p1536
I1535
sVi933
p1537
I1536
sVi1077
p1538
I1537
sVi968
p1539
I1538
sVi1120
p1540
I1539
sVi1221
p1541
I1540
sVi956
p1542
I1541
sVi353
p1543
I1542
sVu367
p1544
I1543
sVi1244
p1545
I1544
sVi759
p1546
I1545
sVi1024
p1547
I1546
sVi1425
p1548
I1547
sVi1259
p1549
I1548
sVi711
p1550
I1549
sVu368
p1551
I1550
sVu371
p1552
I1551
sVi1409
p1553
I1552
sVi1254
p1554
I1553
sVi112
p1555
I1554
sVi1232
p1556
I1555
sVu373
p1557
I1556
sVi888
p1558
I1557
sVi1213
p1559
I1558
sVi1258
p1560
I1559
sVi854
p1561
I1560
sVi236
p1562
I1561
sVi834
p1563
I1562
sVi1083
p1564
I1563
sVu370
p1565
I1564
sVi1368
p1566
I1565
sVi889
p1567
I1566
sVu374
p1568
I1567
sVi1466
p1569
I1568
sVu372
p1570
I1569
sVi893
p1571
I1570
sVi776
p1572
I1571
sVi1390
p1573
I1572
sVi1282
p1574
I1573
sVi952
p1575
I1574
sVu337
p1576
I1575
sVi1370
p1577
I1576
sVi907
p1578
I1577
sVu378
p1579
I1578
sVi861
p1580
I1579
sVi1054
p1581
I1580
sVi46
p1582
I1581
sVi598
p1583
I1582
sVi1480
p1584
I1583
sVi1297
p1585
I1584
sVi1167
p1586
I1585
sVi1300
p1587
I1586
sVi1446
p1588
I1587
sVu366
p1589
I1588
sVi784
p1590
I1589
sVi1143
p1591
I1590
sVi1294
p1592
I1591
sVu377
p1593
I1592
sVi1373
p1594
I1593
sVi1489
p1595
I1594
sVu375
p1596
I1595
sVi800
p1597
I1596
sVu359
p1598
I1597
sVi1088
p1599
I1598
sVi989
p1600
I1599
sVu379
p1601
I1600
sVi1085
p1602
I1601
sVi1473
p1603
I1602
sVu380
p1604
I1603
sVi1303
p1605
I1604
sVu381
p1606
I1605
sVi881
p1607
I1606
sVi1529
p1608
I1607
sVi1175
p1609
I1608
sVi594
p1610
I1609
sVi18
p1611
I1610
sVi1274
p1612
I1611
sVi970
p1613
I1612
sVi1479
p1614
I1613
sVi541
p1615
I1614
sVi1403
p1616
I1615
sVu385
p1617
I1616
sVi1367
p1618
I1617
sVi388
p1619
I1618
sVi837
p1620
I1619
sVu382
p1621
I1620
sVi1309
p1622
I1621
sVi1296
p1623
I1622
sVi565
p1624
I1623
sVi1045
p1625
I1624
sVu387
p1626
I1625
sVi1166
p1627
I1626
sVi1427
p1628
I1627
sVi1385
p1629
I1628
sVi857
p1630
I1629
sVu364
p1631
I1630
sVi822
p1632
I1631
sVu369
p1633
I1632
sVu388
p1634
I1633
sVu386
p1635
I1634
sVi862
p1636
I1635
sVu389
p1637
I1636
sVi1158
p1638
I1637
sVi967
p1639
I1638
sVi1087
p1640
I1639
sVu383
p1641
I1640
sVi1449
p1642
I1641
sVi592
p1643
I1642
sVi890
p1644
I1643
sVi998
p1645
I1644
sVi985
p1646
I1645
sVi1231
p1647
I1646
sVi885
p1648
I1647
sVu390
p1649
I1648
sVi669
p1650
I1649
sVi1438
p1651
I1650
sVi1068
p1652
I1651
sVu393
p1653
I1652
sVi1219
p1654
I1653
sVi667
p1655
I1654
sVi545
p1656
I1655
sVu392
p1657
I1656
sVu376
p1658
I1657
sVi1140
p1659
I1658
sVi726
p1660
I1659
sVi1056
p1661
I1660
sVi1524
p1662
I1661
sVi247
p1663
I1662
sVi1430
p1664
I1663
sVi1236
p1665
I1664
sVi1361
p1666
I1665
sVi1285
p1667
I1666
sVi1058
p1668
I1667
sVi1247
p1669
I1668
sVi35
p1670
I1669
sVu394
p1671
I1670
sVu391
p1672
I1671
sVi1527
p1673
I1672
sVu398
p1674
I1673
sVi916
p1675
I1674
sVu397
p1676
I1675
sVu399
p1677
I1676
sVi1301
p1678
I1677
sVi1374
p1679
I1678
sVi1148
p1680
I1679
sVu396
p1681
I1680
sVi1388
p1682
I1681
sVu401
p1683
I1682
sVi1353
p1684
I1683
sVi1125
p1685
I1684
sVi1485
p1686
I1685
sVi1530
p1687
I1686
sVi803
p1688
I1687
sVu402
p1689
I1688
sVi1310
p1690
I1689
sVi1313
p1691
I1690
sVu384
p1692
I1691
sVu395
p1693
I1692
sVi1405
p1694
I1693
sVi459
p1695
I1694
sVi1469
p1696
I1695
sVu353
p1697
I1696
sVi1387
p1698
I1697
sVu403
p1699
I1698
sVu405
p1700
I1699
sVi1536
p1701
I1700
sVu400
p1702
I1701
sVi1582
p1703
I1702
sVi1343
p1704
I1703
sVi1457
p1705
I1704
sVi1404
p1706
I1705
sVi994
p1707
I1706
sVi1076
p1708
I1707
sVi1543
p1709
I1708
sVu406
p1710
I1709
sVi1432
p1711
I1710
sVi1271
p1712
I1711
sVi1177
p1713
I1712
sVi1223
p1714
I1713
sVi1092
p1715
I1714
sVi1302
p1716
I1715
sVi599
p1717
I1716
sVi1443
p1718
I1717
sVi701
p1719
I1718
sVi706
p1720
I1719
sVi914
p1721
I1720
sVi130
p1722
I1721
sVi1195
p1723
I1722
sVi1417
p1724
I1723
sVi1357
p1725
I1724
sVu407
p1726
I1725
sVu409
p1727
I1726
sVi1273
p1728
I1727
sVu404
p1729
I1728
sVi1578
p1730
I1729
sVi1396
p1731
I1730
sVi1398
p1732
I1731
sVi75
p1733
I1732
sVu413
p1734
I1733
sVi534
p1735
I1734
sVi1458
p1736
I1735
sVi1379
p1737
I1736
sVi1279
p1738
I1737
sVi1330
p1739
I1738
sVi1439
p1740
I1739
sVi1338
p1741
I1740
sVi1354
p1742
I1741
sVi1554
p1743
I1742
sVu416
p1744
I1743
sVu408
p1745
I1744
sVi1193
p1746
I1745
sVi1561
p1747
I1746
sVu410
p1748
I1747
sVi804
p1749
I1748
sVu411
p1750
I1749
sVi668
p1751
I1750
sVi1075
p1752
I1751
sVi442
p1753
I1752
sVu417
p1754
I1753
sVu412
p1755
I1754
sVi1533
p1756
I1755
sVi1434
p1757
I1756
sVi1565
p1758
I1757
sVi1176
p1759
I1758
sVi1456
p1760
I1759
sVi1307
p1761
I1760
sVu420
p1762
I1761
sVu422
p1763
I1762
sVi1534
p1764
I1763
sVi1531
p1765
I1764
sVi400
p1766
I1765
sVi1421
p1767
I1766
sVi1369
p1768
I1767
sVu425
p1769
I1768
sVu419
p1770
I1769
sVu415
p1771
I1770
sVi1455
p1772
I1771
sVi1257
p1773
I1772
sVi1555
p1774
I1773
sVi730
p1775
I1774
sVu423
p1776
I1775
sVi1454
p1777
I1776
sVi1441
p1778
I1777
sVi1103
p1779
I1778
sVi1477
p1780
I1779
sVu429
p1781
I1780
sVu428
p1782
I1781
sVu427
p1783
I1782
sVi1521
p1784
I1783
sVi1174
p1785
I1784
sVu418
p1786
I1785
sVi1538
p1787
I1786
sVi1344
p1788
I1787
sVi798
p1789
I1788
sVi1392
p1790
I1789
sVi1517
p1791
I1790
sVu424
p1792
I1791
sVi1377
p1793
I1792
sVi817
p1794
I1793
sVu432
p1795
I1794
sVu421
p1796
I1795
sVu435
p1797
I1796
sVi1563
p1798
I1797
sVi1264
p1799
I1798
sVi1470
p1800
I1799
sVu433
p1801
I1800
sVu426
p1802
I1801
sVu436
p1803
I1802
sVi1418
p1804
I1803
sVu430
p1805
I1804
sVi1156
p1806
I1805
sVi1406
p1807
I1806
sVu434
p1808
I1807
sVi1360
p1809
I1808
sVi935
p1810
I1809
sVu437
p1811
I1810
sVi1275
p1812
I1811
sVi891
p1813
I1812
sVu438
p1814
I1813
sVi1121
p1815
I1814
sVu431
p1816
I1815
sVi1252
p1817
I1816
sVi1505
p1818
I1817
sVu442
p1819
I1818
sVi1317
p1820
I1819
sVi1519
p1821
I1820
sVi1029
p1822
I1821
sVi912
p1823
I1822
sVu440
p1824
I1823
sVi1200
p1825
I1824
sVi1305
p1826
I1825
sVi1400
p1827
I1826
sVi852
p1828
I1827
sVu445
p1829
I1828
sVu447
p1830
I1829
sVi1375
p1831
I1830
sVu449
p1832
I1831
sVi1501
p1833
I1832
sVi1435
p1834
I1833
sVu450
p1835
I1834
sVi1395
p1836
I1835
sVu446
p1837
I1836
sVi1557
p1838
I1837
sVi1333
p1839
I1838
sVu439
p1840
I1839
sVi1591
p1841
I1840
sVi1562
p1842
I1841
sVu451
p1843
I1842
sVi1269
p1844
I1843
sVi909
p1845
I1844
sVu452
p1846
I1845
sVu454
p1847
I1846
sVu453
p1848
I1847
sVu414
p1849
I1848
sVi1450
p1850
I1849
sVi1550
p1851
I1850
sVi1154
p1852
I1851
sVu455
p1853
I1852
sVi1237
p1854
I1853
sVu444
p1855
I1854
sVu448
p1856
I1855
sVi1261
p1857
I1856
sVu457
p1858
I1857
sVu456
p1859
I1858
sVi1586
p1860
I1859
sVi1038
p1861
I1860
sVu458
p1862
I1861
sVi1504
p1863
I1862
sVu462
p1864
I1863
sVu459
p1865
I1864
sVi1214
p1866
I1865
sVi1522
p1867
I1866
sVi1238
p1868
I1867
sVu460
p1869
I1868
sVu461
p1870
I1869
sVi1064
p1871
I1870
sVi757
p1872
I1871
sVi1476
p1873
I1872
sVi1545
p1874
I1873
sVi1537
p1875
I1874
sVu467
p1876
I1875
sVu468
p1877
I1876
sVu466
p1878
I1877
sVi1391
p1879
I1878
sVi296
p1880
I1879
sVi1472
p1881
I1880
sVu472
p1882
I1881
sVi1580
p1883
I1882
sVu465
p1884
I1883
sVu463
p1885
I1884
sVi1331
p1886
I1885
sVi1363
p1887
I1886
sVi1280
p1888
I1887
sVi1138
p1889
I1888
sVu471
p1890
I1889
sVu474
p1891
I1890
sVi1308
p1892
I1891
sVi1339
p1893
I1892
sVu469
p1894
I1893
sVu464
p1895
I1894
sVu476
p1896
I1895
sVi1523
p1897
I1896
sVu478
p1898
I1897
sVu473
p1899
I1898
sVi1080
p1900
I1899
sVi1096
p1901
I1900
sVi1512
p1902
I1901
sVu470
p1903
I1902
sVu480
p1904
I1903
sVu441
p1905
I1904
sVu479
p1906
I1905
sVi1287
p1907
I1906
sVu484
p1908
I1907
sVu486
p1909
I1908
sVi1483
p1910
I1909
sVu487
p1911
I1910
sVu482
p1912
I1911
sVu481
p1913
I1912
sVi1566
p1914
I1913
sVi1031
p1915
I1914
sVu492
p1916
I1915
sVi917
p1917
I1916
sVu493
p1918
I1917
sVi920
p1919
I1918
sVi1589
p1920
I1919
sVu490
p1921
I1920
sVu489
p1922
I1921
sVi1293
p1923
I1922
sVu483
p1924
I1923
sVi1349
p1925
I1924
sVu496
p1926
I1925
sVu494
p1927
I1926
sVi1422
p1928
I1927
sVi1389
p1929
I1928
sVu495
p1930
I1929
sVi1290
p1931
I1930
sVu477
p1932
I1931
sVu497
p1933
I1932
sVi1447
p1934
I1933
sVi1111
p1935
I1934
sVi1513
p1936
I1935
sVi1235
p1937
I1936
sVu488
p1938
I1937
sVu498
p1939
I1938
sVi1412
p1940
I1939
sVi1185
p1941
I1940
sVi1337
p1942
I1941
sVu499
p1943
I1942
sVi1592
p1944
I1943
sVu491
p1945
I1944
sVi1399
p1946
I1945
sVu500
p1947
I1946
sVu502
p1948
I1947
sVu503
p1949
I1948
sVu504
p1950
I1949
sVi1547
p1951
I1950
sVu505
p1952
I1951
sVu506
p1953
I1952
sVi1420
p1954
I1953
sVu443
p1955
I1954
sVi1173
p1956
I1955
sVu507
p1957
I1956
sVi1159
p1958
I1957
sVi1506
p1959
I1958
sVu514
p1960
I1959
sVi1468
p1961
I1960
sVi1355
p1962
I1961
sVu508
p1963
I1962
sVu511
p1964
I1963
sVi1437
p1965
I1964
sVu515
p1966
I1965
sVu512
p1967
I1966
sVu513
p1968
I1967
sVu475
p1969
I1968
sVu523
p1970
I1969
sVu518
p1971
I1970
sVu509
p1972
I1971
sVu516
p1973
I1972
sVi1304
p1974
I1973
sVu510
p1975
I1974
sVi1359
p1976
I1975
sVu524
p1977
I1976
sVu501
p1978
I1977
sVu525
p1979
I1978
sVi1204
p1980
I1979
sVu521
p1981
I1980
sVi1426
p1982
I1981
sVi1588
p1983
I1982
sVi1590
p1984
I1983
sVi1608
p1985
I1984
sVu520
p1986
I1985
sVu519
p1987
I1986
sVi1617
p1988
I1987
sVu528
p1989
I1988
sVi1026
p1990
I1989
sVu532
p1991
I1990
sVu530
p1992
I1991
sVu531
p1993
I1992
sVi1311
p1994
I1993
sVu529
p1995
I1994
sVi957
p1996
I1995
sVu517
p1997
I1996
sVu527
p1998
I1997
sVu485
p1999
I1998
sVi1326
p2000
I1999
sVu533
p2001
I2000
sVi1587
p2002
I2001
sVi1496
p2003
I2002
sVi981
p2004
I2003
sVi899
p2005
I2004
sVi1560
p2006
I2005
sVi677
p2007
I2006
sVu535
p2008
I2007
sVu536
p2009
I2008
sVi1571
p2010
I2009
sVu526
p2011
I2010
sVi1549
p2012
I2011
sVu537
p2013
I2012
sVi1402
p2014
I2013
sVu534
p2015
I2014
sVi1598
p2016
I2015
sVi1514
p2017
I2016
sVi1558
p2018
I2017
sVi1415
p2019
I2018
sVu541
p2020
I2019
sVu538
p2021
I2020
sVi1528
p2022
I2021
sVu542
p2023
I2022
sVi1575
p2024
I2023
sVu545
p2025
I2024
sVi1510
p2026
I2025
sVi438
p2027
I2026
sVu539
p2028
I2027
sVu547
p2029
I2028
sVu543
p2030
I2029
sVu548
p2031
I2030
sVu546
p2032
I2031
sVi1597
p2033
I2032
sVu522
p2034
I2033
sVi1579
p2035
I2034
sVi600
p2036
I2035
sVi1499
p2037
I2036
sVu551
p2038
I2037
sVi446
p2039
I2038
sVu544
p2040
I2039
sVi1205
p2041
I2040
sVu553
p2042
I2041
sVi1191
p2043
I2042
sVu552
p2044
I2043
sVu540
p2045
I2044
sVi1445
p2046
I2045
sVi1603
p2047
I2046
sVu554
p2048
I2047
sVu550
p2049
I2048
sVu556
p2050
I2049
sVi1616
p2051
I2050
sVu559
p2052
I2051
sVi1465
p2053
I2052
sVi1146
p2054
I2053
sVu560
p2055
I2054
sVu561
p2056
I2055
sVi1539
p2057
I2056
sVi1255
p2058
I2057
sVu563
p2059
I2058
sVu566
p2060
I2059
sVi1526
p2061
I2060
sVu557
p2062
I2061
sVu558
p2063
I2062
sVu564
p2064
I2063
sVi1585
p2065
I2064
sVu565
p2066
I2065
sVu573
p2067
I2066
sVu549
p2068
I2067
sVu567
p2069
I2068
sVu569
p2070
I2069
sVu562
p2071
I2070
sVi1596
p2072
I2071
sVi1605
p2073
I2072
sVi1453
p2074
I2073
sVu576
p2075
I2074
sVu577
p2076
I2075
sVu579
p2077
I2076
sVu574
p2078
I2077
sVu555
p2079
I2078
sVu572
p2080
I2079
sVu575
p2081
I2080
sVu584
p2082
I2081
sVu588
p2083
I2082
sVu587
p2084
I2083
sVu568
p2085
I2084
sVu586
p2086
I2085
sVu585
p2087
I2086
sVi1488
p2088
I2087
sVi1516
p2089
I2088
sVu582
p2090
I2089
sVi1461
p2091
I2090
sVu591
p2092
I2091
sVu581
p2093
I2092
sVi973
p2094
I2093
sVu592
p2095
I2094
sVu580
p2096
I2095
sVi1553
p2097
I2096
sVi1559
p2098
I2097
sVi1431
p2099
I2098
sVi851
p2100
I2099
sVu590
p2101
I2100
sVu593
p2102
I2101
sVu583
p2103
I2102
sVu596
p2104
I2103
sVu570
p2105
I2104
sVu599
p2106
I2105
sVi666
p2107
I2106
sVi1532
p2108
I2107
sVu589
p2109
I2108
sVu594
p2110
I2109
sVu597
p2111
I2110
sVu578
p2112
I2111
sVu601
p2113
I2112
sVu602
p2114
I2113
sVu600
p2115
I2114
sVu605
p2116
I2115
sVu603
p2117
I2116
sVi1507
p2118
I2117
sVu595
p2119
I2118
sVi1540
p2120
I2119
sVi1593
p2121
I2120
sVi1243
p2122
I2121
sVu606
p2123
I2122
sVi1623
p2124
I2123
sVi1576
p2125
I2124
sVu608
p2126
I2125
sVi1511
p2127
I2126
sVu607
p2128
I2127
sVi1525
p2129
I2128
sVu610
p2130
I2129
sVu611
p2131
I2130
sVu617
p2132
I2131
sVu618
p2133
I2132
sVu614
p2134
I2133
sVu609
p2135
I2134
sVu615
p2136
I2135
sVu616
p2137
I2136
sVu620
p2138
I2137
sVu571
p2139
I2138
sVu619
p2140
I2139
sVu613
p2141
I2140
sVu622
p2142
I2141
sVu621
p2143
I2142
sVi1569
p2144
I2143
sVi1568
p2145
I2144
sVu604
p2146
I2145
sVu624
p2147
I2146
sVu612
p2148
I2147
sVu627
p2149
I2148
sVu623
p2150
I2149
sVu628
p2151
I2150
sVu625
p2152
I2151
sVu629
p2153
I2152
sVi1408
p2154
I2153
sVi1602
p2155
I2154
sVu633
p2156
I2155
sVi1381
p2157
I2156
sVu632
p2158
I2157
sVi1340
p2159
I2158
sVi1055
p2160
I2159
sVi1440
p2161
I2160
sVu631
p2162
I2161
sVu634
p2163
I2162
sVi1358
p2164
I2163
sVu639
p2165
I2164
sVu630
p2166
I2165
sVu642
p2167
I2166
sVu637
p2168
I2167
sVu640
p2169
I2168
sVi1502
p2170
I2169
sVu626
p2171
I2170
sVu643
p2172
I2171
sVu598
p2173
I2172
sVu638
p2174
I2173
sVu635
p2175
I2174
sVu644
p2176
I2175
sVi1171
p2177
I2176
sVi1619
p2178
I2177
sVu636
p2179
I2178
sVu645
p2180
I2179
sVu648
p2181
I2180
sVi1319
p2182
I2181
sVi1601
p2183
I2182
sVu647
p2184
I2183
sVu650
p2185
I2184
sVi1620
p2186
I2185
sVu651
p2187
I2186
sVi1474
p2188
I2187
sVi1145
p2189
I2188
sVu654
p2190
I2189
sVi1155
p2191
I2190
sVu653
p2192
I2191
sVu655
p2193
I2192
sVi799
p2194
I2193
sVi1535
p2195
I2194
sVi1615
p2196
I2195
sVi1583
p2197
I2196
sVi1475
p2198
I2197
sVi1624
p2199
I2198
sVi1234
p2200
I2199
sVu649
p2201
I2200
sVu658
p2202
I2201
sVi1323
p2203
I2202
sVi1541
p2204
I2203
sVu656
p2205
I2204
sVi1609
p2206
I2205
sVu660
p2207
I2206
sVu659
p2208
I2207
sVu646
p2209
I2208
sVu663
p2210
I2209
sVi1651
p2211
I2210
sVu664
p2212
I2211
sVu657
p2213
I2212
sVu665
p2214
I2213
sVu666
p2215
I2214
sVu661
p2216
I2215
sVi1414
p2217
I2216
sVu662
p2218
I2217
sVi1486
p2219
I2218
sVu667
p2220
I2219
sVu641
p2221
I2220
sVu668
p2222
I2221
sVu673
p2223
I2222
sVu671
p2224
I2223
sVu669
p2225
I2224
sVu676
p2226
I2225
sVu674
p2227
I2226
sVu652
p2228
I2227
sVi1552
p2229
I2228
sVu677
p2230
I2229
sVi1614
p2231
I2230
sVu682
p2232
I2231
sVu679
p2233
I2232
sVi1570
p2234
I2233
sVu684
p2235
I2234
sVi1335
p2236
I2235
sVu685
p2237
I2236
sVu683
p2238
I2237
sVu691
p2239
I2238
sVi1251
p2240
I2239
sVi1233
p2241
I2240
sVu672
p2242
I2241
sVu692
p2243
I2242
sVu690
p2244
I2243
sVu689
p2245
I2244
sVu686
p2246
I2245
sVu693
p2247
I2246
sVi1612
p2248
I2247
sVu688
p2249
I2248
sVu697
p2250
I2249
sVu698
p2251
I2250
sVu670
p2252
I2251
sVi1599
p2253
I2252
sVu694
p2254
I2253
sVu680
p2255
I2254
sVu705
p2256
I2255
sVu701
p2257
I2256
sVu699
p2258
I2257
sVu704
p2259
I2258
sVu707
p2260
I2259
sVu700
p2261
I2260
sVi1607
p2262
I2261
sVu687
p2263
I2262
sVu695
p2264
I2263
sVu675
p2265
I2264
sVi1345
p2266
I2265
sVu708
p2267
I2266
sVi1649
p2268
I2267
sVu709
p2269
I2268
sVu711
p2270
I2269
sVu710
p2271
I2270
sVu712
p2272
I2271
sVu715
p2273
I2272
sVu713
p2274
I2273
sVu716
p2275
I2274
sVi1656
p2276
I2275
sVu681
p2277
I2276
sVu678
p2278
I2277
sVu719
p2279
I2278
sVu702
p2280
I2279
sVu721
p2281
I2280
sVu714
p2282
I2281
sVi1321
p2283
I2282
sVu717
p2284
I2283
sVu718
p2285
I2284
sVu696
p2286
I2285
sVu722
p2287
I2286
sVi1380
p2288
I2287
sVu724
p2289
I2288
sVu727
p2290
I2289
sVu725
p2291
I2290
sVi1491
p2292
I2291
sVu706
p2293
I2292
sVu720
p2294
I2293
sVu729
p2295
I2294
sVu726
p2296
I2295
sVi1610
p2297
I2296
sVi1642
p2298
I2297
sVu728
p2299
I2298
sVi1572
p2300
I2299
sVu703
p2301
I2300
sVu738
p2302
I2301
sVi1629
p2303
I2302
sVu736
p2304
I2303
sVu734
p2305
I2304
sVi1481
p2306
I2305
sVu730
p2307
I2306
sVu743
p2308
I2307
sVu742
p2309
I2308
sVi1628
p2310
I2309
sVu737
p2311
I2310
sVi1144
p2312
I2311
sVu733
p2313
I2312
sVu745
p2314
I2313
sVi1490
p2315
I2314
sVu740
p2316
I2315
sVu735
p2317
I2316
sVu747
p2318
I2317
sVu723
p2319
I2318
sVu739
p2320
I2319
sVi1600
p2321
I2320
sVu749
p2322
I2321
sVu748
p2323
I2322
sVi1653
p2324
I2323
sVi1452
p2325
I2324
sVi1644
p2326
I2325
sVu746
p2327
I2326
sVu731
p2328
I2327
sVu750
p2329
I2328
sVi1595
p2330
I2329
sVu741
p2331
I2330
sVi1410
p2332
I2331
sVi1548
p2333
I2332
sVu751
p2334
I2333
sVu756
p2335
I2334
sVu757
p2336
I2335
sVi1655
p2337
I2336
sVu752
p2338
I2337
sVu758
p2339
I2338
sVi1654
p2340
I2339
sVi1027
p2341
I2340
sVu732
p2342
I2341
sVi1482
p2343
I2342
sVu762
p2344
I2343
sVu744
p2345
I2344
sVu754
p2346
I2345
sVu753
p2347
I2346
sVu763
p2348
I2347
sVu764
p2349
I2348
sVu767
p2350
I2349
sVi1657
p2351
I2350
sVu769
p2352
I2351
sVu755
p2353
I2352
sVu771
p2354
I2353
sVu768
p2355
I2354
sVu773
p2356
I2355
sVu765
p2357
I2356
sVu772
p2358
I2357
sVu766
p2359
I2358
sVu774
p2360
I2359
sVu760
p2361
I2360
sVu761
p2362
I2361
sVu777
p2363
I2362
sVi1639
p2364
I2363
sVu759
p2365
I2364
sVu776
p2366
I2365
sVu780
p2367
I2366
sVu779
p2368
I2367
sVi1650
p2369
I2368
sVu778
p2370
I2369
sVu782
p2371
I2370
sVu786
p2372
I2371
sVu784
p2373
I2372
sVu770
p2374
I2373
sVu788
p2375
I2374
sVi1196
p2376
I2375
sVu789
p2377
I2376
sVu790
p2378
I2377
sVu787
p2379
I2378
sVu783
p2380
I2379
sVu785
p2381
I2380
sVi1660
p2382
I2381
sVu794
p2383
I2382
sVi1509
p2384
I2383
sVu781
p2385
I2384
sVu796
p2386
I2385
sVi897
p2387
I2386
sVu795
p2388
I2387
sVu793
p2389
I2388
sVu798
p2390
I2389
sVi1365
p2391
I2390
sVu791
p2392
I2391
sVu802
p2393
I2392
sVu800
p2394
I2393
sVu804
p2395
I2394
sVi1661
p2396
I2395
sVu803
p2397
I2396
sVi1423
p2398
I2397
sVi1515
p2399
I2398
sVu775
p2400
I2399
sVu792
p2401
I2400
sVi1658
p2402
I2401
sVu799
p2403
I2402
sVu805
p2404
I2403
sVu806
p2405
I2404
sVu807
p2406
I2405
sVu797
p2407
I2406
sVu801
p2408
I2407
sVu809
p2409
I2408
sVu815
p2410
I2409
sVu817
p2411
I2410
sVu821
p2412
I2411
sVu818
p2413
I2412
sVu814
p2414
I2413
sVu812
p2415
I2414
sVu823
p2416
I2415
sVu825
p2417
I2416
sVu827
p2418
I2417
sVi1621
p2419
I2418
sVu829
p2420
I2419
sVu811
p2421
I2420
sVi1662
p2422
I2421
sVu830
p2423
I2422
sVu826
p2424
I2423
sVu831
p2425
I2424
sVu819
p2426
I2425
sVu828
p2427
I2426
sVi1646
p2428
I2427
sVi1632
p2429
I2428
sVu808
p2430
I2429
sVi1618
p2431
I2430
sVu835
p2432
I2431
sVu833
p2433
I2432
sVu836
p2434
I2433
sVu816
p2435
I2434
sVi1647
p2436
I2435
sVu838
p2437
I2436
sVu839
p2438
I2437
sVu840
p2439
I2438
sVu832
p2440
I2439
sVu810
p2441
I2440
sVu844
p2442
I2441
sVu843
p2443
I2442
sVu834
p2444
I2443
sVu846
p2445
I2444
sVu837
p2446
I2445
sVu813
p2447
I2446
sVu842
p2448
I2447
sVi1429
p2449
I2448
sVu847
p2450
I2449
sVi1643
p2451
I2450
sVu848
p2452
I2451
sVi987
p2453
I2452
sVu822
p2454
I2453
sVi1581
p2455
I2454
sVu852
p2456
I2455
sVu851
p2457
I2456
sVu849
p2458
I2457
sVu854
p2459
I2458
sVu850
p2460
I2459
sVi1584
p2461
I2460
sVu858
p2462
I2461
sVu853
p2463
I2462
sVu855
p2464
I2463
sVu824
p2465
I2464
sVu845
p2466
I2465
sVu841
p2467
I2466
sVu859
p2468
I2467
sVu862
p2469
I2468
sVu856
p2470
I2469
sVu820
p2471
I2470
sVu863
p2472
I2471
sVu860
p2473
I2472
sVi1669
p2474
I2473
sVu857
p2475
I2474
sVu864
p2476
I2475
sVu865
p2477
I2476
sVu868
p2478
I2477
sVu867
p2479
I2478
sVu861
p2480
I2479
sVu870
p2481
I2480
sVi1664
p2482
I2481
sVi1613
p2483
I2482
sVu871
p2484
I2483
sVi911
p2485
I2484
sVu875
p2486
I2485
sVu876
p2487
I2486
sVu872
p2488
I2487
sVu866
p2489
I2488
sVi1130
p2490
I2489
sVu877
p2491
I2490
sVu873
p2492
I2491
sVi1663
p2493
I2492
sVu880
p2494
I2493
sVu878
p2495
I2494
sVu869
p2496
I2495
sVu881
p2497
I2496
sVu879
p2498
I2497
sVu883
p2499
I2498
sVu882
p2500
I2499
sVu884
p2501
I2500
sVi1652
p2502
I2501
sVu886
p2503
I2502
sVu885
p2504
I2503
sVu889
p2505
I2504
sVu874
p2506
I2505
sVi1467
p2507
I2506
sVu892
p2508
I2507
sVu890
p2509
I2508
sVu893
p2510
I2509
sVu887
p2511
I2510
sVu891
p2512
I2511
sVu894
p2513
I2512
sVu896
p2514
I2513
sVi1634
p2515
I2514
sVu897
p2516
I2515
sVu901
p2517
I2516
sVi1256
p2518
I2517
sVu899
p2519
I2518
sVu903
p2520
I2519
sVu904
p2521
I2520
sVu907
p2522
I2521
sVi1606
p2523
I2522
sVu905
p2524
I2523
sVu902
p2525
I2524
sVu898
p2526
I2525
sVu895
p2527
I2526
sVu906
p2528
I2527
sVu900
p2529
I2528
sVu908
p2530
I2529
sVu916
p2531
I2530
sVu911
p2532
I2531
sVu912
p2533
I2532
sVi1544
p2534
I2533
sVu914
p2535
I2534
sVi1622
p2536
I2535
sVi1329
p2537
I2536
sVu918
p2538
I2537
sVu919
p2539
I2538
sVu921
p2540
I2539
sVu910
p2541
I2540
sVu913
p2542
I2541
sVu915
p2543
I2542
sVu922
p2544
I2543
sVu923
p2545
I2544
sVu928
p2546
I2545
sVu927
p2547
I2546
sVu924
p2548
I2547
sVu929
p2549
I2548
sVu931
p2550
I2549
sVu917
p2551
I2550
sVu932
p2552
I2551
sVu909
p2553
I2552
sVi1494
p2554
I2553
sVi1672
p2555
I2554
sVi1673
p2556
I2555
sVu934
p2557
I2556
sVi1382
p2558
I2557
sVu933
p2559
I2558
sVu935
p2560
I2559
sVu938
p2561
I2560
sVu940
p2562
I2561
sVi1633
p2563
I2562
sVu888
p2564
I2563
sVu925
p2565
I2564
sVu942
p2566
I2565
sVu937
p2567
I2566
sVi1677
p2568
I2567
sVi1679
p2569
I2568
sVu926
p2570
I2569
sVu943
p2571
I2570
sVi1577
p2572
I2571
sVu939
p2573
I2572
sVu936
p2574
I2573
sVu930
p2575
I2574
sVi1666
p2576
I2575
sVu920
p2577
I2576
sVu941
p2578
I2577
sVi1356
p2579
I2578
sVi1635
p2580
I2579
sVi1433
p2581
I2580
sVi1648
p2582
I2581
sVi1573
p2583
I2582
sVi1551
p2584
I2583
sVi1631
p2585
I2584
sVi1542
p2586
I2585
sVi1556
p2587
I2586
sVi1678
p2588
I2587
sVi1567
p2589
I2588
sVi1122
p2590
I2589
sVi1201
p2591
I2590
sVi1546
p2592
I2591
sVi1627
p2593
I2592
sVi1676
p2594
I2593
sVi1680
p2595
I2594
sVi1366
p2596
I2595
sVi1611
p2597
I2596
sVi1668
p2598
I2597
sVi1564
p2599
I2598
sVi1604
p2600
I2599
sVi1574
p2601
I2600
sVi1448
p2602
I2601
sVi1671
p2603
I2602
sVi1625
p2604
I2603
sVi1665
p2605
I2604
sVi1325
p2606
I2605
sVi1670
p2607
I2606
sVi1341
p2608
I2607
sVi1352
p2609
I2608
sVi1636
p2610
I2609
sVi1681
p2611
I2610
sVi1638
p2612
I2611
sVi1667
p2613
I2612
sVi1675
p2614
I2613
sVi1460
p2615
I2614
sVi1594
p2616
I2615
sVi1626
p2617
I2616
sVi1645
p2618
I2617
sVi1659
p2619
I2618
sVi1682
p2620
I2619
sVi1674
p2621
I2620
sVi1640
p2622
I2621
sVi1637
p2623
I2622
sVi1630
p2624
I2623
sVi1641
p2625
I2624
sVg3
p2626
I2625
sVg4
p2627
I2626
sVg5
p2628
I2627
sVg1
p2629
I2628
sVg2
p2630
I2629
sVg16
p2631
I2630
sVg8
p2632
I2631
sVg6
p2633
I2632
sVg15
p2634
I2633
sVg17
p2635
I2634
sVg14
p2636
I2635
sVg11
p2637
I2636
sVg12
p2638
I2637
sVg7
p2639
I2638
sVg18
p2640
I2639
sVg9
p2641
I2640
sVg10
p2642
I2641
sVg13
p2643
I2642
s.